; Function Attrs: mustprogress uwtable
define void @_ZN2cv4gapi3wip4draw11renderFrameERKNS_6GFrameERKNS_6GArrayINS_4util7variantIJNS2_4TextENS2_5FTextENS2_4RectENS2_6CircleENS2_4LineENS2_6MosaicENS2_5ImageENS2_4PolyEEEEEE(ptr dead_on_unwind noalias writable sret(%"class.cv::GFrame") align 8 %0, ptr nocapture noundef nonnull readonly align 8 dereferenceable(16) %1, ptr nocapture noundef nonnull readonly align 8 dereferenceable(32) %2) local_unnamed_addr #3 personality ptr @__gxx_personality_v0 {
  %4 = alloca %"class.cv::GFrame", align 8
  %5 = alloca %"class.cv::GArray", align 8
  %6 = load ptr, ptr %1, align 8
  store ptr %6, ptr %4, align 8
  %7 = getelementptr inbounds i8, ptr %4, i64 8
  %8 = getelementptr inbounds i8, ptr %1, i64 8
  %9 = load ptr, ptr %8, align 8
  store ptr %9, ptr %7, align 8
  %.not.i.i.i.i = icmp eq ptr %9, null
  br i1 %.not.i.i.i.i, label %_ZN2cv6GFrameC2ERKS0_.exit, label %10

10:                                               ; preds = %3
  %11 = getelementptr inbounds i8, ptr %9, i64 8
  %12 = load i8, ptr @__libc_single_threaded, align 1
  %.not.i.i.i.i.i = icmp eq i8 %12, 0
  br i1 %.not.i.i.i.i.i, label %16, label %13

13:                                               ; preds = %10
  %14 = load i32, ptr %11, align 4
  %15 = add nsw i32 %14, 1
  store i32 %15, ptr %11, align 4
  br label %_ZN2cv6GFrameC2ERKS0_.exit

16:                                               ; preds = %10
  %17 = atomicrmw volatile add ptr %11, i32 1 acq_rel, align 4
  br label %_ZN2cv6GFrameC2ERKS0_.exit

_ZN2cv6GFrameC2ERKS0_.exit:                       ; preds = %3, %13, %16
  %18 = load ptr, ptr %2, align 8
  store ptr %18, ptr %5, align 8
  %19 = getelementptr inbounds i8, ptr %5, i64 8
  %20 = getelementptr inbounds i8, ptr %2, i64 8
  %21 = load ptr, ptr %20, align 8
  store ptr %21, ptr %19, align 8
  %.not.i.i.i.i.i3 = icmp eq ptr %21, null
  br i1 %.not.i.i.i.i.i3, label %_ZNSt10shared_ptrIN2cv7GOriginEEC2ERKS2_.exit.i.i, label %22

22:                                               ; preds = %_ZN2cv6GFrameC2ERKS0_.exit
  %23 = getelementptr inbounds i8, ptr %21, i64 8
  %24 = load i8, ptr @__libc_single_threaded, align 1
  %.not.i.i.i.i.i.i = icmp eq i8 %24, 0
  br i1 %.not.i.i.i.i.i.i, label %28, label %25

25:                                               ; preds = %22
  %26 = load i32, ptr %23, align 4
  %27 = add nsw i32 %26, 1
  store i32 %27, ptr %23, align 4
  br label %_ZNSt10shared_ptrIN2cv7GOriginEEC2ERKS2_.exit.i.i

28:                                               ; preds = %22
  %29 = atomicrmw volatile add ptr %23, i32 1 acq_rel, align 4
  br label %_ZNSt10shared_ptrIN2cv7GOriginEEC2ERKS2_.exit.i.i

_ZNSt10shared_ptrIN2cv7GOriginEEC2ERKS2_.exit.i.i: ; preds = %28, %25, %_ZN2cv6GFrameC2ERKS0_.exit
  %30 = getelementptr inbounds i8, ptr %5, i64 16
  %31 = getelementptr inbounds i8, ptr %2, i64 16
  %32 = load ptr, ptr %31, align 8
  store ptr %32, ptr %30, align 8
  %33 = getelementptr inbounds i8, ptr %5, i64 24
  %34 = getelementptr inbounds i8, ptr %2, i64 24
  %35 = load ptr, ptr %34, align 8
  store ptr %35, ptr %33, align 8
  %.not.i.i.i3.i.i = icmp eq ptr %35, null
  br i1 %.not.i.i.i3.i.i, label %_ZN2cv6GArrayINS_4util7variantIJNS_4gapi3wip4draw4TextENS5_5FTextENS5_4RectENS5_6CircleENS5_4LineENS5_6MosaicENS5_5ImageENS5_4PolyEEEEEC2ERKSF_.exit, label %36

36:                                               ; preds = %_ZNSt10shared_ptrIN2cv7GOriginEEC2ERKS2_.exit.i.i
  %37 = getelementptr inbounds i8, ptr %35, i64 8
  %38 = load i8, ptr @__libc_single_threaded, align 1
  %.not.i.i.i.i4.i.i = icmp eq i8 %38, 0
  br i1 %.not.i.i.i.i4.i.i, label %42, label %39

39:                                               ; preds = %36
  %40 = load i32, ptr %37, align 4
  %41 = add nsw i32 %40, 1
  store i32 %41, ptr %37, align 4
  br label %_ZN2cv6GArrayINS_4util7variantIJNS_4gapi3wip4draw4TextENS5_5FTextENS5_4RectENS5_6CircleENS5_4LineENS5_6MosaicENS5_5ImageENS5_4PolyEEEEEC2ERKSF_.exit

42:                                               ; preds = %36
  %43 = atomicrmw volatile add ptr %37, i32 1 acq_rel, align 4
  br label %_ZN2cv6GArrayINS_4util7variantIJNS_4gapi3wip4draw4TextENS5_5FTextENS5_4RectENS5_6CircleENS5_4LineENS5_6MosaicENS5_5ImageENS5_4PolyEEEEEC2ERKSF_.exit

_ZN2cv6GArrayINS_4util7variantIJNS_4gapi3wip4draw4TextENS5_5FTextENS5_4RectENS5_6CircleENS5_4LineENS5_6MosaicENS5_5ImageENS5_4PolyEEEEEC2ERKSF_.exit: ; preds = %_ZNSt10shared_ptrIN2cv7GOriginEEC2ERKS2_.exit.i.i, %39, %42
  invoke void @_ZN2cv11GKernelTypeINS_4gapi3wip4draw12GRenderFrameESt8functionIFNS_6GFrameES6_NS_6GArrayINS_4util7variantIJNS3_4TextENS3_5FTextENS3_4RectENS3_6CircleENS3_4LineENS3_6MosaicENS3_5ImageENS3_4PolyEEEEEEEEE2onES6_SJ_(ptr dead_on_unwind writable sret(%"class.cv::GFrame") align 8 %0, ptr noundef nonnull %4, ptr noundef nonnull %5)
          to label %44 unwind label %80

44:                                               ; preds = %_ZN2cv6GArrayINS_4util7variantIJNS_4gapi3wip4draw4TextENS5_5FTextENS5_4RectENS5_6CircleENS5_4LineENS5_6MosaicENS5_5ImageENS5_4PolyEEEEEC2ERKSF_.exit
  call void @_ZN2cv6detail7GArrayUD2Ev(ptr noundef nonnull align 8 dereferenceable(32) %5) #16
  %45 = load ptr, ptr %7, align 8
  %.not.i.i.i.i4 = icmp eq ptr %45, null
  br i1 %.not.i.i.i.i4, label %_ZN2cv6GFrameD2Ev.exit, label %46

46:                                               ; preds = %44
  %47 = getelementptr inbounds i8, ptr %45, i64 8
  %48 = load atomic i64, ptr %47 acquire, align 8
  %49 = icmp eq i64 %48, 4294967297
  %50 = trunc i64 %48 to i32
  br i1 %49, label %51, label %56

51:                                               ; preds = %46
  store i32 0, ptr %47, align 8
  %52 = getelementptr inbounds i8, ptr %45, i64 12
  store i32 0, ptr %52, align 4
  %53 = load ptr, ptr %45, align 8
  %54 = getelementptr inbounds i8, ptr %53, i64 16
  %55 = load ptr, ptr %54, align 8
  call void %55(ptr noundef nonnull align 8 dereferenceable(16) %45) #16
  br label %_ZNSt16_Sp_counted_baseILN9__gnu_cxx12_Lock_policyE2EE24_M_release_last_use_coldEv.exit.sink.split.i.i.i.i.i

56:                                               ; preds = %46
  %57 = load i8, ptr @__libc_single_threaded, align 1
  %.not.i.i.i.i.i5 = icmp eq i8 %57, 0
  br i1 %.not.i.i.i.i.i5, label %60, label %58

58:                                               ; preds = %56
  %59 = add nsw i32 %50, -1
  store i32 %59, ptr %47, align 4
  br label %62

60:                                               ; preds = %56
  %61 = atomicrmw volatile add ptr %47, i32 -1 acq_rel, align 4
  br label %62

62:                                               ; preds = %60, %58
  %.0.i.i.i.i.i = phi i32 [ %50, %58 ], [ %61, %60 ]
  %63 = icmp eq i32 %.0.i.i.i.i.i, 1
  br i1 %63, label %64, label %_ZN2cv6GFrameD2Ev.exit

64:                                               ; preds = %62
  %65 = load ptr, ptr %45, align 8
  %66 = getelementptr inbounds i8, ptr %65, i64 16
  %67 = load ptr, ptr %66, align 8
  call void %67(ptr noundef nonnull align 8 dereferenceable(16) %45) #16
  %68 = getelementptr inbounds i8, ptr %45, i64 12
  %69 = load i8, ptr @__libc_single_threaded, align 1
  %.not.i.i.i.i.i.i.i = icmp eq i8 %69, 0
  br i1 %.not.i.i.i.i.i.i.i, label %73, label %70

70:                                               ; preds = %64
  %71 = load i32, ptr %68, align 4
  %72 = add nsw i32 %71, -1
  store i32 %72, ptr %68, align 4
  br label %75

73:                                               ; preds = %64
  %74 = atomicrmw volatile add ptr %68, i32 -1 acq_rel, align 4
  br label %75

75:                                               ; preds = %73, %70
  %.0.i.i.i.i.i.i.i = phi i32 [ %71, %70 ], [ %74, %73 ]
  %76 = icmp eq i32 %.0.i.i.i.i.i.i.i, 1
  br i1 %76, label %_ZNSt16_Sp_counted_baseILN9__gnu_cxx12_Lock_policyE2EE24_M_release_last_use_coldEv.exit.sink.split.i.i.i.i.i, label %_ZN2cv6GFrameD2Ev.exit

_ZNSt16_Sp_counted_baseILN9__gnu_cxx12_Lock_policyE2EE24_M_release_last_use_coldEv.exit.sink.split.i.i.i.i.i: ; preds = %75, %51
  %77 = load ptr, ptr %45, align 8
  %78 = getelementptr inbounds i8, ptr %77, i64 24
  %79 = load ptr, ptr %78, align 8
  call void %79(ptr noundef nonnull align 8 dereferenceable(16) %45) #16
  br label %_ZN2cv6GFrameD2Ev.exit

_ZN2cv6GFrameD2Ev.exit:                           ; preds = %44, %62, %75, %_ZNSt16_Sp_counted_baseILN9__gnu_cxx12_Lock_policyE2EE24_M_release_last_use_coldEv.exit.sink.split.i.i.i.i.i
  ret void

80:                                               ; preds = %_ZN2cv6GArrayINS_4util7variantIJNS_4gapi3wip4draw4TextENS5_5FTextENS5_4RectENS5_6CircleENS5_4LineENS5_6MosaicENS5_5ImageENS5_4PolyEEEEEC2ERKSF_.exit
  %81 = landingpad { ptr, i32 }
          cleanup
  call void @_ZN2cv6detail7GArrayUD2Ev(ptr noundef nonnull align 8 dereferenceable(32) %5) #16
  call void @_ZN2cv6GFrameD2Ev(ptr noundef nonnull align 8 dereferenceable(16) %4) #16
  resume { ptr, i32 } %81
}